; Function Attrs: mustprogress nofree norecurse nosync nounwind memory(readwrite, inaccessiblemem: none) uwtable
define hidden void @_ZN2cv11bioinspired11RetinaColor20runColorMultiplexingERKSt8valarrayIfERS3_(ptr noundef nonnull readonly align 8 captures(none) dereferenceable(349) %0, ptr noundef nonnull readonly align 8 captures(none) dereferenceable(16) %1, ptr noundef nonnull readonly align 8 captures(none) dereferenceable(16) %2) local_unnamed_addr #9 align 2 {
  %4 = getelementptr inbounds nuw i8, ptr %0, i64 56
  %5 = load i64, ptr %4, align 8, !tbaa !61
  %6 = trunc i64 %5 to i32
  %.not = icmp eq i32 %6, 0
  br i1 %.not, label %._crit_edge, label %.lr.ph

.lr.ph:                                           ; preds = %3
  %7 = getelementptr inbounds nuw i8, ptr %2, i64 8
  %8 = load ptr, ptr %7, align 8, !tbaa !16
  %9 = getelementptr inbounds nuw i8, ptr %0, i64 216
  %10 = load ptr, ptr %9, align 8, !tbaa !12
  %11 = getelementptr inbounds nuw i8, ptr %1, i64 8
  %12 = load ptr, ptr %11, align 8, !tbaa !16
  br label %13

._crit_edge:                                      ; preds = %13, %3
  ret void

13:                                               ; preds = %.lr.ph, %13
  %.010 = phi i32 [ 0, %.lr.ph ], [ %20, %13 ]
  %.069 = phi ptr [ %8, %.lr.ph ], [ %19, %13 ]
  %.078 = phi ptr [ %10, %.lr.ph ], [ %14, %13 ]
  %14 = getelementptr inbounds nuw i8, ptr %.078, i64 4
  %15 = load i32, ptr %.078, align 4, !tbaa !84
  %16 = zext i32 %15 to i64
  %17 = getelementptr inbounds nuw float, ptr %12, i64 %16
  %18 = load float, ptr %17, align 4, !tbaa !31
  %19 = getelementptr inbounds nuw i8, ptr %.069, i64 4
  store float %18, ptr %.069, align 4, !tbaa !31
  %20 = add nuw i32 %.010, 1
  %exitcond.not = icmp eq i32 %20, %6
  br i1 %exitcond.not, label %._crit_edge, label %13, !llvm.loop !148
}